; Function Attrs: mustprogress uwtable
define void @_ZN3net11QuicSession16ProcessUdpPacketERKNS_10IPEndPointES3_RKNS_18QuicReceivedPacketE(ptr noundef nonnull readonly align 8 captures(none) dereferenceable(2044) %0, ptr noundef nonnull align 8 dereferenceable(26) %1, ptr noundef nonnull align 8 dereferenceable(26) %2, ptr noundef nonnull align 8 dereferenceable(45) %3) unnamed_addr #0 align 2 {
  %5 = getelementptr inbounds nuw i8, ptr %0, i64 56
  %6 = load ptr, ptr %5, align 8, !tbaa !18
  %7 = load ptr, ptr %6, align 8, !tbaa !3
  %8 = getelementptr inbounds nuw i8, ptr %7, i64 272
  %9 = load ptr, ptr %8, align 8
  tail call void %9(ptr noundef nonnull align 8 dereferenceable(3372) %6, ptr noundef nonnull align 8 dereferenceable(26) %1, ptr noundef nonnull align 8 dereferenceable(26) %2, ptr noundef nonnull align 8 dereferenceable(45) %3)
  ret void
}